target datalayout = "e-m:e-p270:32:32-p271:32:32-p272:64:64-i64:64-i128:128-f80:128-n8:16:32:64-S128"
target triple = "x86_64-unknown-linux-gnu"

%"class.(anonymous namespace)::Demangler" = type { ptr, i8, %"class.llvh::ms_demangle::ArenaAllocator", %"struct.(anonymous namespace)::BackrefContext" }
%"class.llvh::ms_demangle::ArenaAllocator" = type { ptr }
%"struct.(anonymous namespace)::BackrefContext" = type { [10 x ptr], i64, [10 x ptr], i64 }
%class.StringView = type { ptr, ptr }
%"struct.llvh::ms_demangle::ArenaAllocator::AllocatorNode" = type { ptr, i64, i64, ptr }

@_ZN4llvh11ms_demangleL9AllocUnitE = internal constant i64 4096, align 8

; Function Attrs: mustprogress nounwind uwtable
define linkonce_odr hidden void @_ZN4llvh11ms_demangle14ArenaAllocator13AllocatorNodeC2Ev(ptr noundef nonnull align 8 dereferenceable(32) %this) unnamed_addr #0 comdat align 2 {
entry:
  %this.addr = alloca ptr, align 8
  store ptr %this, ptr %this.addr, align 8
  %this1 = load ptr, ptr %this.addr, align 8
  %Buf = getelementptr inbounds %"struct.llvh::ms_demangle::ArenaAllocator::AllocatorNode", ptr %this1, i32 0, i32 0
  store ptr null, ptr %Buf, align 8
  %Used = getelementptr inbounds %"struct.llvh::ms_demangle::ArenaAllocator::AllocatorNode", ptr %this1, i32 0, i32 1
  store i64 0, ptr %Used, align 8
  %Capacity = getelementptr inbounds %"struct.llvh::ms_demangle::ArenaAllocator::AllocatorNode", ptr %this1, i32 0, i32 2
  store i64 0, ptr %Capacity, align 8
  %Next = getelementptr inbounds %"struct.llvh::ms_demangle::ArenaAllocator::AllocatorNode", ptr %this1, i32 0, i32 3
  store ptr null, ptr %Next, align 8
  ret void
}

; Function Attrs: mustprogress nounwind uwtable
define linkonce_odr hidden void @_ZN4llvh11ms_demangle14ArenaAllocator7addNodeEm(ptr noundef nonnull align 8 dereferenceable(8) %this, i64 noundef %Capacity) #0 comdat align 2 {
entry:
  %this.addr = alloca ptr, align 8
  %Capacity.addr = alloca i64, align 8
  %NewHead = alloca ptr, align 8
  store ptr %this, ptr %this.addr, align 8
  store i64 %Capacity, ptr %Capacity.addr, align 8
  %this1 = load ptr, ptr %this.addr, align 8
  %call = call noalias noundef nonnull ptr @_Znwm(i64 noundef 32) #18
  call void @_ZN4llvh11ms_demangle14ArenaAllocator13AllocatorNodeC2Ev(ptr noundef nonnull align 8 dereferenceable(32) %call) #13
  store ptr %call, ptr %NewHead, align 8
  %0 = load i64, ptr %Capacity.addr, align 8
  %call2 = call noalias noundef nonnull ptr @_Znam(i64 noundef %0) #18
  %1 = load ptr, ptr %NewHead, align 8
  %Buf = getelementptr inbounds %"struct.llvh::ms_demangle::ArenaAllocator::AllocatorNode", ptr %1, i32 0, i32 0
  store ptr %call2, ptr %Buf, align 8
  %Head = getelementptr inbounds %"class.llvh::ms_demangle::ArenaAllocator", ptr %this1, i32 0, i32 0
  %2 = load ptr, ptr %Head, align 8
  %3 = load ptr, ptr %NewHead, align 8
  %Next = getelementptr inbounds %"struct.llvh::ms_demangle::ArenaAllocator::AllocatorNode", ptr %3, i32 0, i32 3
  store ptr %2, ptr %Next, align 8
  %4 = load i64, ptr %Capacity.addr, align 8
  %5 = load ptr, ptr %NewHead, align 8
  %Capacity3 = getelementptr inbounds %"struct.llvh::ms_demangle::ArenaAllocator::AllocatorNode", ptr %5, i32 0, i32 2
  store i64 %4, ptr %Capacity3, align 8
  %6 = load ptr, ptr %NewHead, align 8
  %Head4 = getelementptr inbounds %"class.llvh::ms_demangle::ArenaAllocator", ptr %this1, i32 0, i32 0
  store ptr %6, ptr %Head4, align 8
  %7 = load ptr, ptr %NewHead, align 8
  %Used = getelementptr inbounds %"struct.llvh::ms_demangle::ArenaAllocator::AllocatorNode", ptr %7, i32 0, i32 1
  store i64 0, ptr %Used, align 8
  ret void
}

; Function Attrs: mustprogress nounwind uwtable
define linkonce_odr noundef nonnull align 8 dereferenceable(8) ptr @_ZSt3maxImERKT_S2_S2_(ptr noundef nonnull align 8 dereferenceable(8) %__a, ptr noundef nonnull align 8 dereferenceable(8) %__b) #0 comdat {
entry:
  %retval = alloca ptr, align 8
  %__a.addr = alloca ptr, align 8
  %__b.addr = alloca ptr, align 8
  store ptr %__a, ptr %__a.addr, align 8
  store ptr %__b, ptr %__b.addr, align 8
  %0 = load ptr, ptr %__a.addr, align 8
  %1 = load i64, ptr %0, align 8
  %2 = load ptr, ptr %__b.addr, align 8
  %3 = load i64, ptr %2, align 8
  %cmp = icmp ult i64 %1, %3
  br i1 %cmp, label %if.then, label %if.end

if.then:                                          ; preds = %entry
  %4 = load ptr, ptr %__b.addr, align 8
  store ptr %4, ptr %retval, align 8
  br label %return

if.end:                                           ; preds = %entry
  %5 = load ptr, ptr %__a.addr, align 8
  store ptr %5, ptr %retval, align 8
  br label %return

return:                                           ; preds = %if.end, %if.then
  %6 = load ptr, ptr %retval, align 8
  ret ptr %6
}

; Function Attrs: mustprogress nounwind uwtable
define linkonce_odr hidden void @_ZN10StringViewC2EPKcm(ptr noundef nonnull align 8 dereferenceable(16) %this, ptr noundef %First_, i64 noundef %Len) unnamed_addr #0 comdat align 2 {
entry:
  %this.addr = alloca ptr, align 8
  %First_.addr = alloca ptr, align 8
  %Len.addr = alloca i64, align 8
  store ptr %this, ptr %this.addr, align 8
  store ptr %First_, ptr %First_.addr, align 8
  store i64 %Len, ptr %Len.addr, align 8
  %this1 = load ptr, ptr %this.addr, align 8
  %First = getelementptr inbounds %class.StringView, ptr %this1, i32 0, i32 0
  %0 = load ptr, ptr %First_.addr, align 8
  store ptr %0, ptr %First, align 8
  %Last = getelementptr inbounds %class.StringView, ptr %this1, i32 0, i32 1
  %1 = load ptr, ptr %First_.addr, align 8
  %2 = load i64, ptr %Len.addr, align 8
  %add.ptr = getelementptr inbounds i8, ptr %1, i64 %2
  store ptr %add.ptr, ptr %Last, align 8
  ret void
}

; Function Attrs: mustprogress nounwind uwtable
define linkonce_odr hidden noundef ptr @_ZNK10StringView5beginEv(ptr noundef nonnull align 8 dereferenceable(16) %this) #0 comdat align 2 {
entry:
  %this.addr = alloca ptr, align 8
  store ptr %this, ptr %this.addr, align 8
  %this1 = load ptr, ptr %this.addr, align 8
  %First = getelementptr inbounds %class.StringView, ptr %this1, i32 0, i32 0
  %0 = load ptr, ptr %First, align 8
  ret ptr %0
}

; Function Attrs: mustprogress nounwind uwtable
define linkonce_odr hidden noundef ptr @_ZN4llvh11ms_demangle14ArenaAllocator20allocUnalignedBufferEm(ptr noundef nonnull align 8 dereferenceable(8) %this, i64 noundef %Length) #0 comdat align 2 {
entry:
  %this.addr = alloca ptr, align 8
  %Length.addr = alloca i64, align 8
  %Buf = alloca ptr, align 8
  store ptr %this, ptr %this.addr, align 8
  store i64 %Length, ptr %Length.addr, align 8
  %this1 = load ptr, ptr %this.addr, align 8
  %Head = getelementptr inbounds %"class.llvh::ms_demangle::ArenaAllocator", ptr %this1, i32 0, i32 0
  %0 = load ptr, ptr %Head, align 8
  %Buf2 = getelementptr inbounds %"struct.llvh::ms_demangle::ArenaAllocator::AllocatorNode", ptr %0, i32 0, i32 0
  %1 = load ptr, ptr %Buf2, align 8
  %Head3 = getelementptr inbounds %"class.llvh::ms_demangle::ArenaAllocator", ptr %this1, i32 0, i32 0
  %2 = load ptr, ptr %Head3, align 8
  %Used = getelementptr inbounds %"struct.llvh::ms_demangle::ArenaAllocator::AllocatorNode", ptr %2, i32 0, i32 1
  %3 = load i64, ptr %Used, align 8
  %add.ptr = getelementptr inbounds i8, ptr %1, i64 %3
  store ptr %add.ptr, ptr %Buf, align 8
  %4 = load i64, ptr %Length.addr, align 8
  %Head4 = getelementptr inbounds %"class.llvh::ms_demangle::ArenaAllocator", ptr %this1, i32 0, i32 0
  %5 = load ptr, ptr %Head4, align 8
  %Used5 = getelementptr inbounds %"struct.llvh::ms_demangle::ArenaAllocator::AllocatorNode", ptr %5, i32 0, i32 1
  %6 = load i64, ptr %Used5, align 8
  %add = add i64 %6, %4
  store i64 %add, ptr %Used5, align 8
  %Head6 = getelementptr inbounds %"class.llvh::ms_demangle::ArenaAllocator", ptr %this1, i32 0, i32 0
  %7 = load ptr, ptr %Head6, align 8
  %Used7 = getelementptr inbounds %"struct.llvh::ms_demangle::ArenaAllocator::AllocatorNode", ptr %7, i32 0, i32 1
  %8 = load i64, ptr %Used7, align 8
  %Head8 = getelementptr inbounds %"class.llvh::ms_demangle::ArenaAllocator", ptr %this1, i32 0, i32 0
  %9 = load ptr, ptr %Head8, align 8
  %Capacity = getelementptr inbounds %"struct.llvh::ms_demangle::ArenaAllocator::AllocatorNode", ptr %9, i32 0, i32 2
  %10 = load i64, ptr %Capacity, align 8
  %cmp = icmp ugt i64 %8, %10
  br i1 %cmp, label %if.then, label %if.end

if.then:                                          ; preds = %entry
  %call = call noundef nonnull align 8 dereferenceable(8) ptr @_ZSt3maxImERKT_S2_S2_(ptr noundef nonnull align 8 dereferenceable(8) @_ZN4llvh11ms_demangleL9AllocUnitE, ptr noundef nonnull align 8 dereferenceable(8) %Length.addr)
  %11 = load i64, ptr %call, align 8
  call void @_ZN4llvh11ms_demangle14ArenaAllocator7addNodeEm(ptr noundef nonnull align 8 dereferenceable(8) %this1, i64 noundef %11)
  %12 = load i64, ptr %Length.addr, align 8
  %Head9 = getelementptr inbounds %"class.llvh::ms_demangle::ArenaAllocator", ptr %this1, i32 0, i32 0
  %13 = load ptr, ptr %Head9, align 8
  %Used10 = getelementptr inbounds %"struct.llvh::ms_demangle::ArenaAllocator::AllocatorNode", ptr %13, i32 0, i32 1
  store i64 %12, ptr %Used10, align 8
  %Head11 = getelementptr inbounds %"class.llvh::ms_demangle::ArenaAllocator", ptr %this1, i32 0, i32 0
  %14 = load ptr, ptr %Head11, align 8
  %Buf12 = getelementptr inbounds %"struct.llvh::ms_demangle::ArenaAllocator::AllocatorNode", ptr %14, i32 0, i32 0
  %15 = load ptr, ptr %Buf12, align 8
  store ptr %15, ptr %Buf, align 8
  br label %if.end

if.end:                                           ; preds = %if.then, %entry
  %16 = load ptr, ptr %Buf, align 8
  ret ptr %16
}

; Function Attrs: mustprogress nounwind uwtable
define linkonce_odr hidden noundef i64 @_ZNK10StringView4sizeEv(ptr noundef nonnull align 8 dereferenceable(16) %this) #0 comdat align 2 {
entry:
  %this.addr = alloca ptr, align 8
  store ptr %this, ptr %this.addr, align 8
  %this1 = load ptr, ptr %this.addr, align 8
  %Last = getelementptr inbounds %class.StringView, ptr %this1, i32 0, i32 1
  %0 = load ptr, ptr %Last, align 8
  %First = getelementptr inbounds %class.StringView, ptr %this1, i32 0, i32 0
  %1 = load ptr, ptr %First, align 8
  %sub.ptr.lhs.cast = ptrtoint ptr %0 to i64
  %sub.ptr.rhs.cast = ptrtoint ptr %1 to i64
  %sub.ptr.sub = sub i64 %sub.ptr.lhs.cast, %sub.ptr.rhs.cast
  ret i64 %sub.ptr.sub
}

; Function Attrs: mustprogress nounwind uwtable
define internal { ptr, ptr } @_ZN12_GLOBAL__N_19Demangler10copyStringE10StringView(ptr noundef nonnull align 8 dereferenceable(200) %this, ptr %Borrowed.coerce0, ptr %Borrowed.coerce1) #0 align 2 {
entry:
  %retval = alloca %class.StringView, align 8
  %Borrowed = alloca %class.StringView, align 8
  %this.addr = alloca ptr, align 8
  %Stable = alloca ptr, align 8
  %0 = getelementptr inbounds { ptr, ptr }, ptr %Borrowed, i32 0, i32 0
  store ptr %Borrowed.coerce0, ptr %0, align 8
  %1 = getelementptr inbounds { ptr, ptr }, ptr %Borrowed, i32 0, i32 1
  store ptr %Borrowed.coerce1, ptr %1, align 8
  store ptr %this, ptr %this.addr, align 8
  %this1 = load ptr, ptr %this.addr, align 8
  %Arena = getelementptr inbounds %"class.(anonymous namespace)::Demangler", ptr %this1, i32 0, i32 2
  %call = call noundef i64 @_ZNK10StringView4sizeEv(ptr noundef nonnull align 8 dereferenceable(16) %Borrowed)
  %add = add i64 %call, 1
  %call2 = call noundef ptr @_ZN4llvh11ms_demangle14ArenaAllocator20allocUnalignedBufferEm(ptr noundef nonnull align 8 dereferenceable(8) %Arena, i64 noundef %add)
  store ptr %call2, ptr %Stable, align 8
  %2 = load ptr, ptr %Stable, align 8
  %call3 = call noundef ptr @_ZNK10StringView5beginEv(ptr noundef nonnull align 8 dereferenceable(16) %Borrowed)
  %call4 = call ptr @strcpy(ptr noundef %2, ptr noundef %call3) #13
  %3 = load ptr, ptr %Stable, align 8
  %call5 = call noundef i64 @_ZNK10StringView4sizeEv(ptr noundef nonnull align 8 dereferenceable(16) %Borrowed)
  call void @_ZN10StringViewC2EPKcm(ptr noundef nonnull align 8 dereferenceable(16) %retval, ptr noundef %3, i64 noundef %call5)
  %4 = load { ptr, ptr }, ptr %retval, align 8
  ret { ptr, ptr } %4
}