; Function Attrs: mustprogress nounwind uwtable
define internal fastcc { ptr, ptr } @_ZN12_GLOBAL__N_19Demangler10copyStringE10StringView(ptr nocapture noundef nonnull align 8 dereferenceable(200) %this, ptr %Borrowed.coerce0, ptr %Borrowed.coerce1) unnamed_addr #2 align 2 {
entry:
  %Arena = getelementptr inbounds i8, ptr %this, i64 16
  %sub.ptr.lhs.cast.i = ptrtoint ptr %Borrowed.coerce1 to i64
  %sub.ptr.rhs.cast.i = ptrtoint ptr %Borrowed.coerce0 to i64
  %sub.ptr.sub.i = sub i64 %sub.ptr.lhs.cast.i, %sub.ptr.rhs.cast.i
  %add = add i64 %sub.ptr.sub.i, 1
  %0 = load ptr, ptr %Arena, align 8
  %1 = load ptr, ptr %0, align 8
  %Used.i = getelementptr inbounds i8, ptr %0, i64 8
  %2 = load i64, ptr %Used.i, align 8
  %add.ptr.i = getelementptr inbounds i8, ptr %1, i64 %2
  %add.i = add i64 %2, %add
  store i64 %add.i, ptr %Used.i, align 8
  %3 = load ptr, ptr %Arena, align 8
  %Used7.i = getelementptr inbounds i8, ptr %3, i64 8
  %4 = load i64, ptr %Used7.i, align 8
  %Capacity.i = getelementptr inbounds i8, ptr %3, i64 16
  %5 = load i64, ptr %Capacity.i, align 8
  %cmp.i = icmp ugt i64 %4, %5
  br i1 %cmp.i, label %if.then.i, label %_ZN4llvh11ms_demangle14ArenaAllocator20allocUnalignedBufferEm.exit

if.then.i:                                        ; preds = %entry
  %.sroa.speculated.i = tail call i64 @llvm.umax.i64(i64 %add, i64 4096)
  %call.i.i = tail call noalias noundef nonnull dereferenceable(32) ptr @_Znwm(i64 noundef 32) #20
  %call2.i.i = tail call noalias noundef nonnull ptr @_Znam(i64 noundef %.sroa.speculated.i) #20
  store ptr %call2.i.i, ptr %call.i.i, align 8
  %Next.i.i = getelementptr inbounds i8, ptr %call.i.i, i64 24
  store ptr %3, ptr %Next.i.i, align 8
  %Capacity3.i.i = getelementptr inbounds i8, ptr %call.i.i, i64 16
  store i64 %.sroa.speculated.i, ptr %Capacity3.i.i, align 8
  store ptr %call.i.i, ptr %Arena, align 8
  %Used.i.i = getelementptr inbounds i8, ptr %call.i.i, i64 8
  store i64 %add, ptr %Used.i.i, align 8
  br label %_ZN4llvh11ms_demangle14ArenaAllocator20allocUnalignedBufferEm.exit

_ZN4llvh11ms_demangle14ArenaAllocator20allocUnalignedBufferEm.exit: ; preds = %entry, %if.then.i
  %Buf.0.i = phi ptr [ %call2.i.i, %if.then.i ], [ %add.ptr.i, %entry ]
  %call4 = tail call ptr @strcpy(ptr noundef nonnull dereferenceable(1) %Buf.0.i, ptr noundef nonnull dereferenceable(1) %Borrowed.coerce0) #24
  %add.ptr.i7 = getelementptr inbounds i8, ptr %Buf.0.i, i64 %sub.ptr.sub.i
  %.fca.0.insert = insertvalue { ptr, ptr } poison, ptr %Buf.0.i, 0
  %.fca.1.insert = insertvalue { ptr, ptr } %.fca.0.insert, ptr %add.ptr.i7, 1
  ret { ptr, ptr } %.fca.1.insert
}